target datalayout = "e-m:e-p270:32:32-p271:32:32-p272:64:64-i64:64-i128:128-f80:128-n8:16:32:64-S128"
target triple = "x86_64-unknown-linux-gnu"

%"class.nla::emonics" = type { %class.trail_stack, %class.union_find, %class.svector, ptr, %class.vector.1, %class.svector, i32, %class.svector.2, %"struct.nla::emonics::hash_canonical", %"struct.nla::emonics::eq_canonical", %class.map }
%class.trail_stack = type { %class.ptr_vector, %class.svector, %class.region }
%class.ptr_vector = type { %class.vector }
%class.vector = type { ptr }
%class.region = type { ptr, ptr, ptr, ptr, ptr }
%class.union_find = type { ptr, ptr, %class.svector, %class.svector, %class.svector, %"class.union_find<nla::emonics>::mk_var_trail" }
%"class.union_find<nla::emonics>::mk_var_trail" = type { %class.trail, ptr }
%class.trail = type { ptr }
%class.vector.1 = type { ptr }
%class.svector = type { %class.vector.0 }
%class.vector.0 = type { ptr }
%class.svector.2 = type { %class.vector.3 }
%class.vector.3 = type { ptr }
%"struct.nla::emonics::hash_canonical" = type { ptr }
%"struct.nla::emonics::eq_canonical" = type { ptr }
%class.map = type { %class.table2map }
%class.table2map = type { %class.core_hashtable }
%class.core_hashtable = type <{ %"struct.table2map<default_map_entry<unsigned int, svector<unsigned int>>, nla::emonics::hash_canonical, nla::emonics::eq_canonical>::entry_hash_proc", %"struct.table2map<default_map_entry<unsigned int, svector<unsigned int>>, nla::emonics::hash_canonical, nla::emonics::eq_canonical>::entry_eq_proc", ptr, i32, i32, i32, [4 x i8] }>
%"struct.table2map<default_map_entry<unsigned int, svector<unsigned int>>, nla::emonics::hash_canonical, nla::emonics::eq_canonical>::entry_hash_proc" = type { %"struct.nla::emonics::hash_canonical" }
%"struct.table2map<default_map_entry<unsigned int, svector<unsigned int>>, nla::emonics::hash_canonical, nla::emonics::eq_canonical>::entry_eq_proc" = type { %"struct.nla::emonics::eq_canonical" }
%"class.nla::monic" = type <{ %"class.nla::mon_eq", %class.svector, i8, [3 x i8], i32, i8, i8, [6 x i8] }>
%"class.nla::mon_eq" = type { i32, %class.svector }
%"struct.nla::pp_mon_with_vars" = type { ptr, ptr }

@.str = private unnamed_addr constant [8 x i8] c"monics\0A\00", align 1
@.str.4 = private unnamed_addr constant [2 x i8] c"m\00", align 1
@.str.5 = private unnamed_addr constant [3 x i8] c": \00", align 1
@.str.6 = private unnamed_addr constant [2 x i8] c"\0A\00", align 1

; Function Attrs: mustprogress nounwind uwtable
define linkonce_odr hidden noundef i32 @_ZNK6vectorIN3nla5monicELb1EjE4sizeEv(ptr noundef nonnull align 8 dereferenceable(8) %this) #4 comdat align 2 {
entry:
  %retval = alloca i32, align 4
  %this.addr = alloca ptr, align 8
  store ptr %this, ptr %this.addr, align 8
  %this1 = load ptr, ptr %this.addr, align 8
  %m_data = getelementptr inbounds %class.vector.1, ptr %this1, i32 0, i32 0
  %0 = load ptr, ptr %m_data, align 8
  %cmp = icmp eq ptr %0, null
  br i1 %cmp, label %if.then, label %if.end

if.then:                                          ; preds = %entry
  store i32 0, ptr %retval, align 4
  br label %return

if.end:                                           ; preds = %entry
  %m_data2 = getelementptr inbounds %class.vector.1, ptr %this1, i32 0, i32 0
  %1 = load ptr, ptr %m_data2, align 8
  %arrayidx = getelementptr inbounds i32, ptr %1, i64 -1
  %2 = load i32, ptr %arrayidx, align 4
  store i32 %2, ptr %retval, align 4
  br label %return

return:                                           ; preds = %if.end, %if.then
  %3 = load i32, ptr %retval, align 4
  ret i32 %3
}

; Function Attrs: mustprogress uwtable
define linkonce_odr hidden noundef nonnull align 8 dereferenceable(8) ptr @_ZN3nlalsERSoRKNS_16pp_mon_with_varsE(ptr noundef nonnull align 8 dereferenceable(8) %out, ptr noundef nonnull align 8 dereferenceable(16) %p) #5 comdat {
entry:
  %out.addr = alloca ptr, align 8
  %p.addr = alloca ptr, align 8
  store ptr %out, ptr %out.addr, align 8
  store ptr %p, ptr %p.addr, align 8
  %0 = load ptr, ptr %p.addr, align 8
  %c = getelementptr inbounds %"struct.nla::pp_mon_with_vars", ptr %0, i32 0, i32 0
  %1 = load ptr, ptr %c, align 8
  %2 = load ptr, ptr %p.addr, align 8
  %m = getelementptr inbounds %"struct.nla::pp_mon_with_vars", ptr %2, i32 0, i32 1
  %3 = load ptr, ptr %m, align 8
  %4 = load ptr, ptr %out.addr, align 8
  %call = call noundef nonnull align 8 dereferenceable(8) ptr @_ZNK3nla4core21print_monic_with_varsERKNS_5monicERSo(ptr noundef nonnull align 8 dereferenceable(4720) %1, ptr noundef nonnull align 8 dereferenceable(34) %3, ptr noundef nonnull align 8 dereferenceable(8) %4)
  ret ptr %call
}

; Function Attrs: mustprogress nounwind uwtable
define linkonce_odr hidden void @_ZN3nla16pp_mon_with_varsC2ERKNS_4coreERKNS_5monicE(ptr noundef nonnull align 8 dereferenceable(16) %this, ptr noundef nonnull align 8 dereferenceable(4720) %c, ptr noundef nonnull align 8 dereferenceable(34) %m) unnamed_addr #4 comdat align 2 {
entry:
  %this.addr = alloca ptr, align 8
  %c.addr = alloca ptr, align 8
  %m.addr = alloca ptr, align 8
  store ptr %this, ptr %this.addr, align 8
  store ptr %c, ptr %c.addr, align 8
  store ptr %m, ptr %m.addr, align 8
  %this1 = load ptr, ptr %this.addr, align 8
  %c2 = getelementptr inbounds %"struct.nla::pp_mon_with_vars", ptr %this1, i32 0, i32 0
  %0 = load ptr, ptr %c.addr, align 8
  store ptr %0, ptr %c2, align 8
  %m3 = getelementptr inbounds %"struct.nla::pp_mon_with_vars", ptr %this1, i32 0, i32 1
  %1 = load ptr, ptr %m.addr, align 8
  store ptr %1, ptr %m3, align 8
  ret void
}

; Function Attrs: mustprogress nounwind uwtable
define linkonce_odr hidden noundef ptr @_ZN6vectorIN3nla5monicELb1EjE3endEv(ptr noundef nonnull align 8 dereferenceable(8) %this) #4 comdat align 2 {
entry:
  %this.addr = alloca ptr, align 8
  store ptr %this, ptr %this.addr, align 8
  %this1 = load ptr, ptr %this.addr, align 8
  %m_data = getelementptr inbounds %class.vector.1, ptr %this1, i32 0, i32 0
  %0 = load ptr, ptr %m_data, align 8
  %call = call noundef i32 @_ZNK6vectorIN3nla5monicELb1EjE4sizeEv(ptr noundef nonnull align 8 dereferenceable(8) %this1)
  %idx.ext = zext i32 %call to i64
  %add.ptr = getelementptr inbounds %"class.nla::monic", ptr %0, i64 %idx.ext
  ret ptr %add.ptr
}

; Function Attrs: mustprogress nounwind uwtable
define linkonce_odr hidden noundef ptr @_ZN6vectorIN3nla5monicELb1EjE5beginEv(ptr noundef nonnull align 8 dereferenceable(8) %this) #4 comdat align 2 {
entry:
  %this.addr = alloca ptr, align 8
  store ptr %this, ptr %this.addr, align 8
  %this1 = load ptr, ptr %this.addr, align 8
  %m_data = getelementptr inbounds %class.vector.1, ptr %this1, i32 0, i32 0
  %0 = load ptr, ptr %m_data, align 8
  ret ptr %0
}

; Function Attrs: mustprogress uwtable
define hidden noundef nonnull align 8 dereferenceable(8) ptr @_ZNK3nla7emonics7displayERKNS_4coreERSo(ptr noundef nonnull align 8 dereferenceable(216) %this, ptr noundef nonnull align 8 dereferenceable(4720) %cr, ptr noundef nonnull align 8 dereferenceable(8) %out) #5 align 2 {
entry:
  %this.addr = alloca ptr, align 8
  %cr.addr = alloca ptr, align 8
  %out.addr = alloca ptr, align 8
  %idx = alloca i32, align 4
  %__range1 = alloca ptr, align 8
  %__begin1 = alloca ptr, align 8
  %__end1 = alloca ptr, align 8
  %m = alloca ptr, align 8
  %ref.tmp = alloca %"struct.nla::pp_mon_with_vars", align 8
  store ptr %this, ptr %this.addr, align 8
  store ptr %cr, ptr %cr.addr, align 8
  store ptr %out, ptr %out.addr, align 8
  %this1 = load ptr, ptr %this.addr, align 8
  %0 = load ptr, ptr %out.addr, align 8
  %call = call noundef nonnull align 8 dereferenceable(8) ptr @_ZStlsISt11char_traitsIcEERSt13basic_ostreamIcT_ES5_PKc(ptr noundef nonnull align 8 dereferenceable(8) %0, ptr noundef @.str)
  store i32 0, ptr %idx, align 4
  %m_monics = getelementptr inbounds %"class.nla::emonics", ptr %this1, i32 0, i32 4
  store ptr %m_monics, ptr %__range1, align 8
  %1 = load ptr, ptr %__range1, align 8
  %call2 = call noundef ptr @_ZN6vectorIN3nla5monicELb1EjE5beginEv(ptr noundef nonnull align 8 dereferenceable(8) %1)
  store ptr %call2, ptr %__begin1, align 8
  %2 = load ptr, ptr %__range1, align 8
  %call3 = call noundef ptr @_ZN6vectorIN3nla5monicELb1EjE3endEv(ptr noundef nonnull align 8 dereferenceable(8) %2)
  store ptr %call3, ptr %__end1, align 8
  br label %for.cond

for.cond:                                         ; preds = %for.inc, %entry
  %3 = load ptr, ptr %__begin1, align 8
  %4 = load ptr, ptr %__end1, align 8
  %cmp = icmp ne ptr %3, %4
  br i1 %cmp, label %for.body, label %for.end

for.body:                                         ; preds = %for.cond
  %5 = load ptr, ptr %__begin1, align 8
  store ptr %5, ptr %m, align 8
  %6 = load ptr, ptr %out.addr, align 8
  %call4 = call noundef nonnull align 8 dereferenceable(8) ptr @_ZStlsISt11char_traitsIcEERSt13basic_ostreamIcT_ES5_PKc(ptr noundef nonnull align 8 dereferenceable(8) %6, ptr noundef @.str.4)
  %7 = load i32, ptr %idx, align 4
  %inc = add i32 %7, 1
  store i32 %inc, ptr %idx, align 4
  %call5 = call noundef nonnull align 8 dereferenceable(8) ptr @_ZNSolsEj(ptr noundef nonnull align 8 dereferenceable(8) %call4, i32 noundef %7)
  %call6 = call noundef nonnull align 8 dereferenceable(8) ptr @_ZStlsISt11char_traitsIcEERSt13basic_ostreamIcT_ES5_PKc(ptr noundef nonnull align 8 dereferenceable(8) %call5, ptr noundef @.str.5)
  %8 = load ptr, ptr %cr.addr, align 8
  %9 = load ptr, ptr %m, align 8
  call void @_ZN3nla16pp_mon_with_varsC2ERKNS_4coreERKNS_5monicE(ptr noundef nonnull align 8 dereferenceable(16) %ref.tmp, ptr noundef nonnull align 8 dereferenceable(4720) %8, ptr noundef nonnull align 8 dereferenceable(34) %9)
  %call7 = call noundef nonnull align 8 dereferenceable(8) ptr @_ZN3nlalsERSoRKNS_16pp_mon_with_varsE(ptr noundef nonnull align 8 dereferenceable(8) %call6, ptr noundef nonnull align 8 dereferenceable(16) %ref.tmp)
  %call8 = call noundef nonnull align 8 dereferenceable(8) ptr @_ZStlsISt11char_traitsIcEERSt13basic_ostreamIcT_ES5_PKc(ptr noundef nonnull align 8 dereferenceable(8) %call7, ptr noundef @.str.6)
  br label %for.inc

for.inc:                                          ; preds = %for.body
  %10 = load ptr, ptr %__begin1, align 8
  %incdec.ptr = getelementptr inbounds %"class.nla::monic", ptr %10, i32 1
  store ptr %incdec.ptr, ptr %__begin1, align 8
  br label %for.cond

for.end:                                          ; preds = %for.cond
  %11 = load ptr, ptr %out.addr, align 8
  %call9 = call noundef nonnull align 8 dereferenceable(8) ptr @_ZNK3nla7emonics11display_useERSo(ptr noundef nonnull align 8 dereferenceable(216) %this1, ptr noundef nonnull align 8 dereferenceable(8) %11)
  %12 = load ptr, ptr %out.addr, align 8
  ret ptr %12
}