; Function Attrs: mustprogress uwtable
define hidden noundef nonnull align 8 dereferenceable(8) ptr @_ZNK3nla7emonics7displayERKNS_4coreERSo(ptr nocapture noundef nonnull readonly align 8 dereferenceable(216) %this, ptr noundef nonnull align 8 dereferenceable(4720) %cr, ptr noundef nonnull returned align 8 dereferenceable(8) %out) local_unnamed_addr #4 align 2 {
entry:
  %call = tail call noundef nonnull align 8 dereferenceable(8) ptr @_ZStlsISt11char_traitsIcEERSt13basic_ostreamIcT_ES5_PKc(ptr noundef nonnull align 8 dereferenceable(8) %out, ptr noundef nonnull @.str)
  %m_monics = getelementptr inbounds i8, ptr %this, i64 128
  %0 = load ptr, ptr %m_monics, align 8
  %cmp.i.i = icmp eq ptr %0, null
  br i1 %cmp.i.i, label %for.end, label %_ZN6vectorIN3nla5monicELb1EjE3endEv.exit

_ZN6vectorIN3nla5monicELb1EjE3endEv.exit:         ; preds = %entry
  %arrayidx.i.i = getelementptr inbounds i8, ptr %0, i64 -4
  %1 = load i32, ptr %arrayidx.i.i, align 4
  %2 = zext i32 %1 to i64
  %add.ptr.i = getelementptr inbounds %"class.nla::monic", ptr %0, i64 %2
  %cmp.not7 = icmp eq i32 %1, 0
  br i1 %cmp.not7, label %for.end, label %for.body

for.body:                                         ; preds = %_ZN6vectorIN3nla5monicELb1EjE3endEv.exit, %for.body
  %idx.09 = phi i32 [ %inc, %for.body ], [ 0, %_ZN6vectorIN3nla5monicELb1EjE3endEv.exit ]
  %__begin1.08 = phi ptr [ %incdec.ptr, %for.body ], [ %0, %_ZN6vectorIN3nla5monicELb1EjE3endEv.exit ]
  %call4 = tail call noundef nonnull align 8 dereferenceable(8) ptr @_ZStlsISt11char_traitsIcEERSt13basic_ostreamIcT_ES5_PKc(ptr noundef nonnull align 8 dereferenceable(8) %out, ptr noundef nonnull @.str.4)
  %inc = add nuw i32 %idx.09, 1
  %call5 = tail call noundef nonnull align 8 dereferenceable(8) ptr @_ZNSolsEj(ptr noundef nonnull align 8 dereferenceable(8) %call4, i32 noundef %idx.09)
  %call6 = tail call noundef nonnull align 8 dereferenceable(8) ptr @_ZStlsISt11char_traitsIcEERSt13basic_ostreamIcT_ES5_PKc(ptr noundef nonnull align 8 dereferenceable(8) %call5, ptr noundef nonnull @.str.5)
  %call.i = tail call noundef nonnull align 8 dereferenceable(8) ptr @_ZNK3nla4core21print_monic_with_varsERKNS_5monicERSo(ptr noundef nonnull align 8 dereferenceable(4720) %cr, ptr noundef nonnull align 8 dereferenceable(34) %__begin1.08, ptr noundef nonnull align 8 dereferenceable(8) %call6)
  %call8 = tail call noundef nonnull align 8 dereferenceable(8) ptr @_ZStlsISt11char_traitsIcEERSt13basic_ostreamIcT_ES5_PKc(ptr noundef nonnull align 8 dereferenceable(8) %call.i, ptr noundef nonnull @.str.6)
  %incdec.ptr = getelementptr inbounds i8, ptr %__begin1.08, i64 40
  %cmp.not = icmp eq ptr %incdec.ptr, %add.ptr.i
  br i1 %cmp.not, label %for.end, label %for.body

for.end:                                          ; preds = %for.body, %entry, %_ZN6vectorIN3nla5monicELb1EjE3endEv.exit
  %call9 = tail call noundef nonnull align 8 dereferenceable(8) ptr @_ZNK3nla7emonics11display_useERSo(ptr noundef nonnull align 8 dereferenceable(216) %this, ptr noundef nonnull align 8 dereferenceable(8) %out)
  ret ptr %out
}